target datalayout = "e-m:e-p270:32:32-p271:32:32-p272:64:64-i64:64-i128:128-f80:128-n8:16:32:64-S128"
target triple = "x86_64-pc-linux-gnu"

%struct._dcerpc_info = type { ptr, i32, i64, i8, i8, i8, i32, i32, i32, i32, i32, i32, i32, i32, ptr, ptr, ptr, ptr, %struct.anon }
%struct.anon = type { i8, ptr, ptr, ptr, i8 }

; Function Attrs: null_pointer_is_valid sspstrong uwtable
define hidden void @init_ndr_pointer_list(ptr noundef %0) #0 {
  %2 = alloca ptr, align 8
  store ptr %0, ptr %2, align 8
  %3 = load ptr, ptr %2, align 8
  %4 = getelementptr inbounds nuw %struct._dcerpc_info, ptr %3, i32 0, i32 4
  store i8 0, ptr %4, align 1
  %5 = load ptr, ptr %2, align 8
  call void @free_ndr_pointer_list(ptr noundef %5)
  %6 = load ptr, ptr %2, align 8
  %7 = getelementptr inbounds nuw %struct._dcerpc_info, ptr %6, i32 0, i32 18
  %8 = getelementptr inbounds nuw %struct.anon, ptr %7, i32 0, i32 4
  store i8 1, ptr %8, align 8
  %9 = call ptr @g_hash_table_new(ptr noundef @g_int_hash, ptr noundef @g_int_equal)
  %10 = load ptr, ptr %2, align 8
  %11 = getelementptr inbounds nuw %struct._dcerpc_info, ptr %10, i32 0, i32 18
  %12 = getelementptr inbounds nuw %struct.anon, ptr %11, i32 0, i32 2
  store ptr %9, ptr %12, align 8
  ret void
}