; Function Attrs: null_pointer_is_valid sspstrong uwtable
define hidden void @init_ndr_pointer_list(ptr noundef initializes((25, 26)) %0) local_unnamed_addr #0 {
  %2 = getelementptr inbounds nuw i8, ptr %0, i64 25
  store i8 0, ptr %2, align 1
  tail call void @free_ndr_pointer_list(ptr noundef %0)
  %3 = getelementptr inbounds nuw i8, ptr %0, i64 128
  store i8 1, ptr %3, align 8
  %4 = tail call ptr @g_hash_table_new(ptr noundef nonnull @g_int_hash, ptr noundef nonnull @g_int_equal)
  %5 = getelementptr inbounds nuw i8, ptr %0, i64 112
  store ptr %4, ptr %5, align 8
  ret void
}